target datalayout = "e-m:e-p270:32:32-p271:32:32-p272:64:64-i64:64-i128:128-f80:128-n8:16:32:64-S128"
target triple = "x86_64-pc-linux-gnu"

@.str = private unnamed_addr constant [22 x i8] c"SDL.app.metadata.name\00", align 1
@.str.1 = private unnamed_addr constant [25 x i8] c"SDL.app.metadata.version\00", align 1
@.str.2 = private unnamed_addr constant [28 x i8] c"SDL.app.metadata.identifier\00", align 1
@.str.8 = private unnamed_addr constant [22 x i8] c"SDL.app.metadata.type\00", align 1
@.str.19 = private unnamed_addr constant [25 x i8] c"SDL.app.metadata.creator\00", align 1
@.str.20 = private unnamed_addr constant [27 x i8] c"SDL.app.metadata.copyright\00", align 1
@.str.21 = private unnamed_addr constant [21 x i8] c"SDL.app.metadata.url\00", align 1

; Function Attrs: nounwind uwtable
define internal zeroext i1 @SDL_ValidMetadataProperty(ptr noundef %0) #2 {
  %2 = alloca i1, align 1
  %3 = alloca ptr, align 8
  store ptr %0, ptr %3, align 8
  %4 = load ptr, ptr %3, align 8
  %5 = icmp ne ptr %4, null
  br i1 %5, label %6, label %10

6:                                                ; preds = %1
  %7 = load ptr, ptr %3, align 8
  %8 = load i8, ptr %7, align 1
  %9 = icmp ne i8 %8, 0
  br i1 %9, label %11, label %10

10:                                               ; preds = %6, %1
  store i1 false, ptr %2, align 1
  br label %41

11:                                               ; preds = %6
  %12 = load ptr, ptr %3, align 8
  %13 = call i32 @SDL_strcmp_REAL(ptr noundef %12, ptr noundef @.str)
  %14 = icmp eq i32 %13, 0
  br i1 %14, label %39, label %15

15:                                               ; preds = %11
  %16 = load ptr, ptr %3, align 8
  %17 = call i32 @SDL_strcmp_REAL(ptr noundef %16, ptr noundef @.str.1)
  %18 = icmp eq i32 %17, 0
  br i1 %18, label %39, label %19

19:                                               ; preds = %15
  %20 = load ptr, ptr %3, align 8
  %21 = call i32 @SDL_strcmp_REAL(ptr noundef %20, ptr noundef @.str.2)
  %22 = icmp eq i32 %21, 0
  br i1 %22, label %39, label %23

23:                                               ; preds = %19
  %24 = load ptr, ptr %3, align 8
  %25 = call i32 @SDL_strcmp_REAL(ptr noundef %24, ptr noundef @.str.19)
  %26 = icmp eq i32 %25, 0
  br i1 %26, label %39, label %27

27:                                               ; preds = %23
  %28 = load ptr, ptr %3, align 8
  %29 = call i32 @SDL_strcmp_REAL(ptr noundef %28, ptr noundef @.str.20)
  %30 = icmp eq i32 %29, 0
  br i1 %30, label %39, label %31

31:                                               ; preds = %27
  %32 = load ptr, ptr %3, align 8
  %33 = call i32 @SDL_strcmp_REAL(ptr noundef %32, ptr noundef @.str.21)
  %34 = icmp eq i32 %33, 0
  br i1 %34, label %39, label %35

35:                                               ; preds = %31
  %36 = load ptr, ptr %3, align 8
  %37 = call i32 @SDL_strcmp_REAL(ptr noundef %36, ptr noundef @.str.8)
  %38 = icmp eq i32 %37, 0
  br i1 %38, label %39, label %40

39:                                               ; preds = %35, %31, %27, %23, %19, %15, %11
  store i1 true, ptr %2, align 1
  br label %41

40:                                               ; preds = %35
  store i1 false, ptr %2, align 1
  br label %41

41:                                               ; preds = %40, %39, %10
  %42 = load i1, ptr %2, align 1
  ret i1 %42
}