; Function Attrs: nounwind uwtable
define internal fastcc zeroext i1 @SDL_ValidMetadataProperty(ptr noundef %0) unnamed_addr #2 {
  %.not = icmp eq ptr %0, null
  br i1 %.not, label %25, label %2

2:                                                ; preds = %1
  %3 = load i8, ptr %0, align 1
  %.not11 = icmp eq i8 %3, 0
  br i1 %.not11, label %25, label %4

4:                                                ; preds = %2
  %5 = tail call i32 @SDL_strcmp_REAL(ptr noundef nonnull %0, ptr noundef nonnull @.str) #11
  %6 = icmp eq i32 %5, 0
  br i1 %6, label %25, label %7

7:                                                ; preds = %4
  %8 = tail call i32 @SDL_strcmp_REAL(ptr noundef nonnull %0, ptr noundef nonnull @.str.1) #11
  %9 = icmp eq i32 %8, 0
  br i1 %9, label %25, label %10

10:                                               ; preds = %7
  %11 = tail call i32 @SDL_strcmp_REAL(ptr noundef nonnull %0, ptr noundef nonnull @.str.2) #11
  %12 = icmp eq i32 %11, 0
  br i1 %12, label %25, label %13

13:                                               ; preds = %10
  %14 = tail call i32 @SDL_strcmp_REAL(ptr noundef nonnull %0, ptr noundef nonnull @.str.19) #11
  %15 = icmp eq i32 %14, 0
  br i1 %15, label %25, label %16

16:                                               ; preds = %13
  %17 = tail call i32 @SDL_strcmp_REAL(ptr noundef nonnull %0, ptr noundef nonnull @.str.20) #11
  %18 = icmp eq i32 %17, 0
  br i1 %18, label %25, label %19

19:                                               ; preds = %16
  %20 = tail call i32 @SDL_strcmp_REAL(ptr noundef nonnull %0, ptr noundef nonnull @.str.21) #11
  %21 = icmp eq i32 %20, 0
  br i1 %21, label %25, label %22

22:                                               ; preds = %19
  %23 = tail call i32 @SDL_strcmp_REAL(ptr noundef nonnull %0, ptr noundef nonnull @.str.8) #11
  %24 = icmp eq i32 %23, 0
  br label %25

25:                                               ; preds = %22, %4, %7, %10, %13, %16, %19, %1, %2
  %.0 = phi i1 [ false, %2 ], [ false, %1 ], [ true, %19 ], [ true, %16 ], [ true, %13 ], [ true, %10 ], [ true, %7 ], [ true, %4 ], [ %24, %22 ]
  ret i1 %.0
}